target datalayout = "e-m:e-p270:32:32-p271:32:32-p272:64:64-i64:64-i128:128-f80:128-n8:16:32:64-S128"
target triple = "x86_64-pc-linux-gnu"

%struct.DdNode = type { i32, i32, ptr, %union.anon, i64 }
%union.anon = type { %struct.DdChildren }
%struct.DdChildren = type { ptr, ptr }
%struct.DdManager = type { %struct.DdNode, ptr, ptr, ptr, ptr, ptr, ptr, ptr, i32, i32, double, double, double, i32, i32, i32, i32, i32, i32, ptr, ptr, %struct.DdSubtable, i32, i32, i32, i32, i32, i32, i32, double, i32, i32, i32, ptr, i64, double, i32, ptr, ptr, ptr, ptr, ptr, ptr, ptr, i32, ptr, ptr, ptr, ptr, ptr, ptr, i32, i32, i32, double, i32, i32, i32, i32, double, double, i32, i32, i32, i32, i32, i32, i32, i32, i32, ptr, ptr, i32, i32, i32, i32, i32, i32, ptr, ptr, ptr, ptr, ptr, ptr, ptr, ptr, i32, i64, i64, i64, i32, i64, i64, double, double, double, double, double, double, i32, ptr, ptr, i64 }
%struct.DdSubtable = type { ptr, i32, i32, i32, i32, i32, i32, i32, i32, i32, i32, i32 }

; Function Attrs: nounwind uwtable
define ptr @Cudd_addBddInterval(ptr noundef %0, ptr noundef %1, double noundef %2, double noundef %3) #0 {
  %5 = alloca ptr, align 8
  %6 = alloca ptr, align 8
  %7 = alloca ptr, align 8
  %8 = alloca double, align 8
  %9 = alloca double, align 8
  %10 = alloca ptr, align 8
  %11 = alloca ptr, align 8
  %12 = alloca ptr, align 8
  %13 = alloca i32, align 4
  store ptr %0, ptr %6, align 8, !tbaa !3
  store ptr %1, ptr %7, align 8, !tbaa !8
  store double %2, ptr %8, align 8, !tbaa !10
  store double %3, ptr %9, align 8, !tbaa !10
  call void @llvm.lifetime.start.p0(i64 8, ptr %10) #5
  call void @llvm.lifetime.start.p0(i64 8, ptr %11) #5
  call void @llvm.lifetime.start.p0(i64 8, ptr %12) #5
  %14 = load ptr, ptr %6, align 8, !tbaa !3
  %15 = load double, ptr %8, align 8, !tbaa !10
  %16 = call ptr @cuddUniqueConst(ptr noundef %14, double noundef %15)
  store ptr %16, ptr %11, align 8, !tbaa !8
  %17 = load ptr, ptr %11, align 8, !tbaa !8
  %18 = icmp eq ptr %17, null
  br i1 %18, label %19, label %20

19:                                               ; preds = %4
  store ptr null, ptr %5, align 8
  store i32 1, ptr %13, align 4
  br label %85

20:                                               ; preds = %4
  %21 = load ptr, ptr %11, align 8, !tbaa !8
  %22 = ptrtoint ptr %21 to i64
  %23 = and i64 %22, -2
  %24 = inttoptr i64 %23 to ptr
  %25 = getelementptr inbounds nuw %struct.DdNode, ptr %24, i32 0, i32 1
  %26 = load i32, ptr %25, align 4, !tbaa !12
  %27 = add i32 %26, 1
  store i32 %27, ptr %25, align 4, !tbaa !12
  %28 = load ptr, ptr %6, align 8, !tbaa !3
  %29 = load double, ptr %9, align 8, !tbaa !10
  %30 = call ptr @cuddUniqueConst(ptr noundef %28, double noundef %29)
  store ptr %30, ptr %12, align 8, !tbaa !8
  %31 = load ptr, ptr %12, align 8, !tbaa !8
  %32 = icmp eq ptr %31, null
  br i1 %32, label %33, label %36

33:                                               ; preds = %20
  %34 = load ptr, ptr %6, align 8, !tbaa !3
  %35 = load ptr, ptr %11, align 8, !tbaa !8
  call void @Cudd_RecursiveDeref(ptr noundef %34, ptr noundef %35)
  store ptr null, ptr %5, align 8
  store i32 1, ptr %13, align 4
  br label %85

36:                                               ; preds = %20
  %37 = load ptr, ptr %12, align 8, !tbaa !8
  %38 = ptrtoint ptr %37 to i64
  %39 = and i64 %38, -2
  %40 = inttoptr i64 %39 to ptr
  %41 = getelementptr inbounds nuw %struct.DdNode, ptr %40, i32 0, i32 1
  %42 = load i32, ptr %41, align 4, !tbaa !12
  %43 = add i32 %42, 1
  store i32 %43, ptr %41, align 4, !tbaa !12
  br label %44

44:                                               ; preds = %52, %36
  %45 = load ptr, ptr %6, align 8, !tbaa !3
  %46 = getelementptr inbounds nuw %struct.DdManager, ptr %45, i32 0, i32 55
  store i32 0, ptr %46, align 8, !tbaa !16
  %47 = load ptr, ptr %6, align 8, !tbaa !3
  %48 = load ptr, ptr %7, align 8, !tbaa !8
  %49 = load ptr, ptr %11, align 8, !tbaa !8
  %50 = load ptr, ptr %12, align 8, !tbaa !8
  %51 = call ptr @addBddDoInterval(ptr noundef %47, ptr noundef %48, ptr noundef %49, ptr noundef %50)
  store ptr %51, ptr %10, align 8, !tbaa !8
  br label %52

52:                                               ; preds = %44
  %53 = load ptr, ptr %6, align 8, !tbaa !3
  %54 = getelementptr inbounds nuw %struct.DdManager, ptr %53, i32 0, i32 55
  %55 = load i32, ptr %54, align 8, !tbaa !16
  %56 = icmp eq i32 %55, 1
  br i1 %56, label %44, label %57, !llvm.loop !36

57:                                               ; preds = %52
  %58 = load ptr, ptr %10, align 8, !tbaa !8
  %59 = icmp eq ptr %58, null
  br i1 %59, label %60, label %65

60:                                               ; preds = %57
  %61 = load ptr, ptr %6, align 8, !tbaa !3
  %62 = load ptr, ptr %11, align 8, !tbaa !8
  call void @Cudd_RecursiveDeref(ptr noundef %61, ptr noundef %62)
  %63 = load ptr, ptr %6, align 8, !tbaa !3
  %64 = load ptr, ptr %12, align 8, !tbaa !8
  call void @Cudd_RecursiveDeref(ptr noundef %63, ptr noundef %64)
  store ptr null, ptr %5, align 8
  store i32 1, ptr %13, align 4
  br label %85

65:                                               ; preds = %57
  %66 = load ptr, ptr %10, align 8, !tbaa !8
  %67 = ptrtoint ptr %66 to i64
  %68 = and i64 %67, -2
  %69 = inttoptr i64 %68 to ptr
  %70 = getelementptr inbounds nuw %struct.DdNode, ptr %69, i32 0, i32 1
  %71 = load i32, ptr %70, align 4, !tbaa !12
  %72 = add i32 %71, 1
  store i32 %72, ptr %70, align 4, !tbaa !12
  %73 = load ptr, ptr %6, align 8, !tbaa !3
  %74 = load ptr, ptr %11, align 8, !tbaa !8
  call void @Cudd_RecursiveDeref(ptr noundef %73, ptr noundef %74)
  %75 = load ptr, ptr %6, align 8, !tbaa !3
  %76 = load ptr, ptr %12, align 8, !tbaa !8
  call void @Cudd_RecursiveDeref(ptr noundef %75, ptr noundef %76)
  %77 = load ptr, ptr %10, align 8, !tbaa !8
  %78 = ptrtoint ptr %77 to i64
  %79 = and i64 %78, -2
  %80 = inttoptr i64 %79 to ptr
  %81 = getelementptr inbounds nuw %struct.DdNode, ptr %80, i32 0, i32 1
  %82 = load i32, ptr %81, align 4, !tbaa !12
  %83 = add i32 %82, -1
  store i32 %83, ptr %81, align 4, !tbaa !12
  %84 = load ptr, ptr %10, align 8, !tbaa !8
  store ptr %84, ptr %5, align 8
  store i32 1, ptr %13, align 4
  br label %85

85:                                               ; preds = %65, %60, %33, %19
  call void @llvm.lifetime.end.p0(i64 8, ptr %12) #5
  call void @llvm.lifetime.end.p0(i64 8, ptr %11) #5
  call void @llvm.lifetime.end.p0(i64 8, ptr %10) #5
  %86 = load ptr, ptr %5, align 8
  ret ptr %86
}