; Function Attrs: nounwind uwtable
define ptr @Cudd_addBddInterval(ptr noundef %0, ptr noundef %1, double noundef %2, double noundef %3) local_unnamed_addr #0 {
  %5 = tail call ptr @cuddUniqueConst(ptr noundef %0, double noundef %2) #4
  %6 = icmp eq ptr %5, null
  br i1 %6, label %41, label %7

7:                                                ; preds = %4
  %8 = ptrtoint ptr %5 to i64
  %9 = and i64 %8, -2
  %10 = inttoptr i64 %9 to ptr
  %11 = getelementptr inbounds nuw i8, ptr %10, i64 4
  %12 = load i32, ptr %11, align 4, !tbaa !3
  %13 = add i32 %12, 1
  store i32 %13, ptr %11, align 4, !tbaa !3
  %14 = tail call ptr @cuddUniqueConst(ptr noundef %0, double noundef %3) #4
  %15 = icmp eq ptr %14, null
  br i1 %15, label %16, label %17

16:                                               ; preds = %7
  tail call void @Cudd_RecursiveDeref(ptr noundef %0, ptr noundef nonnull %5) #4
  br label %41

17:                                               ; preds = %7
  %18 = ptrtoint ptr %14 to i64
  %19 = and i64 %18, -2
  %20 = inttoptr i64 %19 to ptr
  %21 = getelementptr inbounds nuw i8, ptr %20, i64 4
  %22 = load i32, ptr %21, align 4, !tbaa !3
  %23 = add i32 %22, 1
  store i32 %23, ptr %21, align 4, !tbaa !3
  %24 = getelementptr inbounds nuw i8, ptr %0, i64 448
  br label %25

25:                                               ; preds = %25, %17
  store i32 0, ptr %24, align 8, !tbaa !11
  %26 = tail call fastcc ptr @addBddDoInterval(ptr noundef %0, ptr noundef %1, ptr noundef %5, ptr noundef %14)
  %27 = load i32, ptr %24, align 8, !tbaa !11
  %28 = icmp eq i32 %27, 1
  br i1 %28, label %25, label %29, !llvm.loop !31

29:                                               ; preds = %25
  %30 = icmp eq ptr %26, null
  br i1 %30, label %31, label %32

31:                                               ; preds = %29
  tail call void @Cudd_RecursiveDeref(ptr noundef nonnull %0, ptr noundef nonnull %5) #4
  tail call void @Cudd_RecursiveDeref(ptr noundef nonnull %0, ptr noundef nonnull %14) #4
  br label %41

32:                                               ; preds = %29
  %33 = ptrtoint ptr %26 to i64
  %34 = and i64 %33, -2
  %35 = inttoptr i64 %34 to ptr
  %36 = getelementptr inbounds nuw i8, ptr %35, i64 4
  %37 = load i32, ptr %36, align 4, !tbaa !3
  %38 = add i32 %37, 1
  store i32 %38, ptr %36, align 4, !tbaa !3
  tail call void @Cudd_RecursiveDeref(ptr noundef nonnull %0, ptr noundef nonnull %5) #4
  tail call void @Cudd_RecursiveDeref(ptr noundef nonnull %0, ptr noundef nonnull %14) #4
  %39 = load i32, ptr %36, align 4, !tbaa !3
  %40 = add i32 %39, -1
  store i32 %40, ptr %36, align 4, !tbaa !3
  br label %41

41:                                               ; preds = %4, %32, %31, %16
  %.0 = phi ptr [ null, %16 ], [ null, %31 ], [ %26, %32 ], [ null, %4 ]
  ret ptr %.0
}